; ModuleID = 'bench/linux/original/perfctr-watchdog.ll'
source_filename = "bench/linux/original/perfctr-watchdog.ll"
target datalayout = "e-m:e-p270:32:32-p271:32:32-p272:64:64-i64:64-i128:128-f80:128-n8:16:32:64-S128"
target triple = "x86_64-unknown-linux-gnu"

module asm ".section \22.export_symbol\22,\22a\22 ; __export_symbol_reserve_perfctr_nmi: ; .asciz \22\22 ; .asciz \22\22 ; .balign 8 ; .quad reserve_perfctr_nmi ; .previous"
module asm ".section \22.export_symbol\22,\22a\22 ; __export_symbol_release_perfctr_nmi: ; .asciz \22\22 ; .asciz \22\22 ; .balign 8 ; .quad release_perfctr_nmi ; .previous"
module asm ".section \22.export_symbol\22,\22a\22 ; __export_symbol_reserve_evntsel_nmi: ; .asciz \22\22 ; .asciz \22\22 ; .balign 8 ; .quad reserve_evntsel_nmi ; .previous"
module asm ".section \22.export_symbol\22,\22a\22 ; __export_symbol_release_evntsel_nmi: ; .asciz \22\22 ; .asciz \22\22 ; .balign 8 ; .quad release_evntsel_nmi ; .previous"

%struct.cpuinfo_x86 = type { i8, i8, i8, i8, i32, [5 x i32], i8, i8, i8, i32, i32, %union.anon, [16 x i8], [64 x i8], %struct.cpuinfo_topology, i32, i32, i32, i32, i32, i32, i64, i64, i16, i16, i16, i16, i8, i32, i8, i8 }
%union.anon = type { i64, [88 x i8] }
%struct.cpuinfo_topology = type { i32, i32, i32, i32, i32, i32, i32, i32, i32, i32 }

@perfctr_nmi_owner = internal global [2 x i64] zeroinitializer, align 16
@__UNIQUE_ID___addressable_reserve_perfctr_nmi370 = internal global ptr @reserve_perfctr_nmi, section ".discard.addressable", align 8
@__UNIQUE_ID___addressable_release_perfctr_nmi371 = internal global ptr @release_perfctr_nmi, section ".discard.addressable", align 8
@evntsel_nmi_owner = internal global [2 x i64] zeroinitializer, align 16
@__UNIQUE_ID___addressable_reserve_evntsel_nmi372 = internal global ptr @reserve_evntsel_nmi, section ".discard.addressable", align 8
@__UNIQUE_ID___addressable_release_evntsel_nmi373 = internal global ptr @release_evntsel_nmi, section ".discard.addressable", align 8
@boot_cpu_data = external dso_local global %struct.cpuinfo_x86, align 8
@llvm.compiler.used = appending global [4 x ptr] [ptr @__UNIQUE_ID___addressable_release_evntsel_nmi373, ptr @__UNIQUE_ID___addressable_release_perfctr_nmi371, ptr @__UNIQUE_ID___addressable_reserve_evntsel_nmi372, ptr @__UNIQUE_ID___addressable_reserve_perfctr_nmi370], section "llvm.metadata"

; Function Attrs: fn_ret_thunk_extern nounwind null_pointer_is_valid
define dso_local i32 @reserve_perfctr_nmi(i32 noundef %0) #0 align 16 {
  %2 = load i8, ptr getelementptr inbounds (%struct.cpuinfo_x86, ptr @boot_cpu_data, i64 0, i32 1), align 1
  switch i8 %2, label %.thread [
    i8 9, label %3
    i8 2, label %3
    i8 0, label %10
    i8 10, label %24
    i8 5, label %24
  ]

3:                                                ; preds = %1, %1
  %4 = icmp ugt i32 %0, -1073675776
  br i1 %4, label %5, label %8

5:                                                ; preds = %3
  %6 = add nsw i32 %0, 1073675775
  %7 = lshr i32 %6, 1
  br label %26

8:                                                ; preds = %3
  %9 = add i32 %0, 1073676284
  br label %26

10:                                               ; preds = %1
  %11 = load volatile i64, ptr getelementptr inbounds (%struct.cpuinfo_x86, ptr @boot_cpu_data, i64 0, i32 11, i32 1, i64 0), align 8
  %12 = and i64 %11, 8796093022208
  %13 = icmp eq i64 %12, 0
  br i1 %13, label %16, label %14

14:                                               ; preds = %10
  %15 = add i32 %0, -193
  br label %26

16:                                               ; preds = %10
  %17 = load i8, ptr @boot_cpu_data, align 8
  switch i8 %17, label %.thread [
    i8 6, label %18
    i8 11, label %20
    i8 15, label %22
  ]

18:                                               ; preds = %16
  %19 = add i32 %0, -193
  br label %26

20:                                               ; preds = %16
  %21 = add i32 %0, -32
  br label %26

22:                                               ; preds = %16
  %23 = add i32 %0, -768
  br label %26

24:                                               ; preds = %1, %1
  %25 = add i32 %0, -193
  br label %26

26:                                               ; preds = %24, %22, %20, %18, %14, %8, %5
  %27 = phi i32 [ %25, %24 ], [ %15, %14 ], [ %23, %22 ], [ %21, %20 ], [ %19, %18 ], [ %7, %5 ], [ %9, %8 ]
  %28 = icmp ugt i32 %27, 66
  br i1 %28, label %35, label %.thread

.thread:                                          ; preds = %1, %16, %26
  %29 = phi i32 [ %27, %26 ], [ 0, %16 ], [ 0, %1 ]
  %30 = zext nneg i32 %29 to i64
  %31 = tail call i8 asm sideeffect ".pushsection .smp_locks,\22a\22\0A.balign 4\0A.long 671f - .\0A.popsection\0A671:\0A\09lock;  btsq  $2, $0\0A\09/* output condition code c*/\0A", "=*m,={@ccc},Ir,*m,~{memory},~{dirflag},~{fpsr},~{flags}"(ptr nonnull elementtype(i64) @perfctr_nmi_owner, i64 %30, ptr nonnull elementtype(i64) @perfctr_nmi_owner) #2, !srcloc !5
  %32 = icmp ult i8 %31, 2
  tail call void @llvm.assume(i1 %32)
  %33 = xor i8 %31, 1
  %34 = zext nneg i8 %33 to i32
  br label %35

35:                                               ; preds = %.thread, %26
  %36 = phi i32 [ 1, %26 ], [ %34, %.thread ]
  ret i32 %36
}

; Function Attrs: fn_ret_thunk_extern nounwind null_pointer_is_valid
define dso_local void @release_perfctr_nmi(i32 noundef %0) #0 align 16 {
  %2 = load i8, ptr getelementptr inbounds (%struct.cpuinfo_x86, ptr @boot_cpu_data, i64 0, i32 1), align 1
  switch i8 %2, label %.thread [
    i8 9, label %3
    i8 2, label %3
    i8 0, label %10
    i8 10, label %24
    i8 5, label %24
  ]

3:                                                ; preds = %1, %1
  %4 = icmp ugt i32 %0, -1073675776
  br i1 %4, label %5, label %8

5:                                                ; preds = %3
  %6 = add nsw i32 %0, 1073675775
  %7 = lshr i32 %6, 1
  br label %26

8:                                                ; preds = %3
  %9 = add i32 %0, 1073676284
  br label %26

10:                                               ; preds = %1
  %11 = load volatile i64, ptr getelementptr inbounds (%struct.cpuinfo_x86, ptr @boot_cpu_data, i64 0, i32 11, i32 1, i64 0), align 8
  %12 = and i64 %11, 8796093022208
  %13 = icmp eq i64 %12, 0
  br i1 %13, label %16, label %14

14:                                               ; preds = %10
  %15 = add i32 %0, -193
  br label %26

16:                                               ; preds = %10
  %17 = load i8, ptr @boot_cpu_data, align 8
  switch i8 %17, label %.thread [
    i8 6, label %18
    i8 11, label %20
    i8 15, label %22
  ]

18:                                               ; preds = %16
  %19 = add i32 %0, -193
  br label %26

20:                                               ; preds = %16
  %21 = add i32 %0, -32
  br label %26

22:                                               ; preds = %16
  %23 = add i32 %0, -768
  br label %26

24:                                               ; preds = %1, %1
  %25 = add i32 %0, -193
  br label %26

26:                                               ; preds = %24, %22, %20, %18, %14, %8, %5
  %27 = phi i32 [ %25, %24 ], [ %15, %14 ], [ %23, %22 ], [ %21, %20 ], [ %19, %18 ], [ %7, %5 ], [ %9, %8 ]
  %28 = icmp ugt i32 %27, 66
  br i1 %28, label %31, label %.thread

.thread:                                          ; preds = %1, %16, %26
  %29 = phi i32 [ %27, %26 ], [ 0, %16 ], [ 0, %1 ]
  %30 = zext nneg i32 %29 to i64
  tail call void asm sideeffect ".pushsection .smp_locks,\22a\22\0A.balign 4\0A.long 671f - .\0A.popsection\0A671:\0A\09lock;  btrq  $1,$0", "*m,Ir,~{memory},~{dirflag},~{fpsr},~{flags}"(ptr nonnull elementtype(i64) @perfctr_nmi_owner, i64 %30) #2, !srcloc !6
  br label %31

31:                                               ; preds = %.thread, %26
  ret void
}

; Function Attrs: fn_ret_thunk_extern nounwind null_pointer_is_valid
define dso_local i32 @reserve_evntsel_nmi(i32 noundef %0) #0 align 16 {
  %2 = load i8, ptr getelementptr inbounds (%struct.cpuinfo_x86, ptr @boot_cpu_data, i64 0, i32 1), align 1
  switch i8 %2, label %.thread [
    i8 9, label %3
    i8 2, label %3
    i8 0, label %10
    i8 10, label %24
    i8 5, label %24
  ]

3:                                                ; preds = %1, %1
  %4 = icmp ugt i32 %0, -1073675777
  br i1 %4, label %5, label %8

5:                                                ; preds = %3
  %6 = add nsw i32 %0, 1073675776
  %7 = lshr i32 %6, 1
  br label %26

8:                                                ; preds = %3
  %9 = add i32 %0, 1073676288
  br label %26

10:                                               ; preds = %1
  %11 = load volatile i64, ptr getelementptr inbounds (%struct.cpuinfo_x86, ptr @boot_cpu_data, i64 0, i32 11, i32 1, i64 0), align 8
  %12 = and i64 %11, 8796093022208
  %13 = icmp eq i64 %12, 0
  br i1 %13, label %16, label %14

14:                                               ; preds = %10
  %15 = add i32 %0, -390
  br label %26

16:                                               ; preds = %10
  %17 = load i8, ptr @boot_cpu_data, align 8
  switch i8 %17, label %.thread [
    i8 6, label %18
    i8 11, label %20
    i8 15, label %22
  ]

18:                                               ; preds = %16
  %19 = add i32 %0, -390
  br label %26

20:                                               ; preds = %16
  %21 = add i32 %0, -40
  br label %26

22:                                               ; preds = %16
  %23 = add i32 %0, -928
  br label %26

24:                                               ; preds = %1, %1
  %25 = add i32 %0, -390
  br label %26

26:                                               ; preds = %24, %22, %20, %18, %14, %8, %5
  %27 = phi i32 [ %25, %24 ], [ %15, %14 ], [ %23, %22 ], [ %21, %20 ], [ %19, %18 ], [ %7, %5 ], [ %9, %8 ]
  %28 = icmp ugt i32 %27, 66
  br i1 %28, label %35, label %.thread

.thread:                                          ; preds = %1, %16, %26
  %29 = phi i32 [ %27, %26 ], [ 0, %16 ], [ 0, %1 ]
  %30 = zext nneg i32 %29 to i64
  %31 = tail call i8 asm sideeffect ".pushsection .smp_locks,\22a\22\0A.balign 4\0A.long 671f - .\0A.popsection\0A671:\0A\09lock;  btsq  $2, $0\0A\09/* output condition code c*/\0A", "=*m,={@ccc},Ir,*m,~{memory},~{dirflag},~{fpsr},~{flags}"(ptr nonnull elementtype(i64) @evntsel_nmi_owner, i64 %30, ptr nonnull elementtype(i64) @evntsel_nmi_owner) #2, !srcloc !5
  %32 = icmp ult i8 %31, 2
  tail call void @llvm.assume(i1 %32)
  %33 = xor i8 %31, 1
  %34 = zext nneg i8 %33 to i32
  br label %35

35:                                               ; preds = %.thread, %26
  %36 = phi i32 [ 1, %26 ], [ %34, %.thread ]
  ret i32 %36
}

; Function Attrs: fn_ret_thunk_extern nounwind null_pointer_is_valid
define dso_local void @release_evntsel_nmi(i32 noundef %0) #0 align 16 {
  %2 = load i8, ptr getelementptr inbounds (%struct.cpuinfo_x86, ptr @boot_cpu_data, i64 0, i32 1), align 1
  switch i8 %2, label %.thread [
    i8 9, label %3
    i8 2, label %3
    i8 0, label %10
    i8 10, label %24
    i8 5, label %24
  ]

3:                                                ; preds = %1, %1
  %4 = icmp ugt i32 %0, -1073675777
  br i1 %4, label %5, label %8

5:                                                ; preds = %3
  %6 = add nsw i32 %0, 1073675776
  %7 = lshr i32 %6, 1
  br label %26

8:                                                ; preds = %3
  %9 = add i32 %0, 1073676288
  br label %26

10:                                               ; preds = %1
  %11 = load volatile i64, ptr getelementptr inbounds (%struct.cpuinfo_x86, ptr @boot_cpu_data, i64 0, i32 11, i32 1, i64 0), align 8
  %12 = and i64 %11, 8796093022208
  %13 = icmp eq i64 %12, 0
  br i1 %13, label %16, label %14

14:                                               ; preds = %10
  %15 = add i32 %0, -390
  br label %26

16:                                               ; preds = %10
  %17 = load i8, ptr @boot_cpu_data, align 8
  switch i8 %17, label %.thread [
    i8 6, label %18
    i8 11, label %20
    i8 15, label %22
  ]

18:                                               ; preds = %16
  %19 = add i32 %0, -390
  br label %26

20:                                               ; preds = %16
  %21 = add i32 %0, -40
  br label %26

22:                                               ; preds = %16
  %23 = add i32 %0, -928
  br label %26

24:                                               ; preds = %1, %1
  %25 = add i32 %0, -390
  br label %26

26:                                               ; preds = %24, %22, %20, %18, %14, %8, %5
  %27 = phi i32 [ %25, %24 ], [ %15, %14 ], [ %23, %22 ], [ %21, %20 ], [ %19, %18 ], [ %7, %5 ], [ %9, %8 ]
  %28 = icmp ugt i32 %27, 66
  br i1 %28, label %31, label %.thread

.thread:                                          ; preds = %1, %16, %26
  %29 = phi i32 [ %27, %26 ], [ 0, %16 ], [ 0, %1 ]
  %30 = zext nneg i32 %29 to i64
  tail call void asm sideeffect ".pushsection .smp_locks,\22a\22\0A.balign 4\0A.long 671f - .\0A.popsection\0A671:\0A\09lock;  btrq  $1,$0", "*m,Ir,~{memory},~{dirflag},~{fpsr},~{flags}"(ptr nonnull elementtype(i64) @evntsel_nmi_owner, i64 %30) #2, !srcloc !6
  br label %31

31:                                               ; preds = %.thread, %26
  ret void
}

; Function Attrs: mustprogress nocallback nofree nosync nounwind willreturn memory(inaccessiblemem: write)
declare void @llvm.assume(i1 noundef) #1


!llvm.module.flags = !{!0, !1, !2, !3, !4}

!0 = !{i32 1, !"wchar_size", i32 2}
!1 = !{i32 8, !"cf-protection-branch", i32 1}
!2 = !{i32 4, !"function_return_thunk_extern", i32 1}
!3 = !{i32 4, !"indirect_branch_cs_prefix", i32 1}
!4 = !{i32 4, !"SkipRaxSetup", i32 1}
!5 = !{i64 2148201443, i64 2148201482, i64 2148201503, i64 2148201540, i64 2148201563, i64 2148201572, i64 2148201675}
!6 = !{i64 2148196565, i64 2148196604, i64 2148196625, i64 2148196662, i64 2148196685, i64 2148196555}
